target datalayout = "e-m:e-p270:32:32-p271:32:32-p272:64:64-i64:64-i128:128-f80:128-n8:16:32:64-S128"
target triple = "x86_64-pc-linux-gnu"

%struct.BiquadsContext = type { ptr, i32, i32, i32, i32, i32, i32, i32, i32, double, double, double, double, ptr, %struct.AVChannelLayout, i32, i32, [3 x double], [3 x double], [3 x float], [3 x float], [3 x double], [3 x double], [3 x ptr], ptr, [2 x ptr], i32, i64, i32, ptr }
%struct.AVChannelLayout = type { i32, i32, %union.anon.1, ptr }
%union.anon.1 = type { i64 }

; Function Attrs: nounwind uwtable
define internal void @biquad_zdf_flt(ptr noundef %0, ptr noundef %1, ptr noundef %2, i32 noundef %3, ptr noundef %4, ptr noundef %5, i32 noundef %6) #1 {
  %8 = alloca ptr, align 8
  %9 = alloca ptr, align 8
  %10 = alloca ptr, align 8
  %11 = alloca i32, align 4
  %12 = alloca ptr, align 8
  %13 = alloca ptr, align 8
  %14 = alloca i32, align 4
  %15 = alloca ptr, align 8
  %16 = alloca ptr, align 8
  %17 = alloca ptr, align 8
  %18 = alloca ptr, align 8
  %19 = alloca ptr, align 8
  %20 = alloca float, align 4
  %21 = alloca float, align 4
  %22 = alloca float, align 4
  %23 = alloca float, align 4
  %24 = alloca float, align 4
  %25 = alloca float, align 4
  %26 = alloca float, align 4
  %27 = alloca float, align 4
  %28 = alloca float, align 4
  %29 = alloca float, align 4
  %30 = alloca float, align 4
  %31 = alloca i32, align 4
  %32 = alloca float, align 4
  %33 = alloca float, align 4
  %34 = alloca float, align 4
  %35 = alloca float, align 4
  %36 = alloca float, align 4
  store ptr %0, ptr %8, align 8, !tbaa !22
  store ptr %1, ptr %9, align 8, !tbaa !36
  store ptr %2, ptr %10, align 8, !tbaa !36
  store i32 %3, ptr %11, align 4, !tbaa !31
  store ptr %4, ptr %12, align 8, !tbaa !36
  store ptr %5, ptr %13, align 8, !tbaa !82
  store i32 %6, ptr %14, align 4, !tbaa !31
  call void @llvm.lifetime.start.p0(i64 8, ptr %15) #11
  %37 = load ptr, ptr %9, align 8, !tbaa !36
  store ptr %37, ptr %15, align 8, !tbaa !85
  call void @llvm.lifetime.start.p0(i64 8, ptr %16) #11
  %38 = load ptr, ptr %10, align 8, !tbaa !36
  store ptr %38, ptr %16, align 8, !tbaa !85
  call void @llvm.lifetime.start.p0(i64 8, ptr %17) #11
  %39 = load ptr, ptr %12, align 8, !tbaa !36
  store ptr %39, ptr %17, align 8, !tbaa !85
  call void @llvm.lifetime.start.p0(i64 8, ptr %18) #11
  %40 = load ptr, ptr %8, align 8, !tbaa !22
  %41 = getelementptr inbounds nuw %struct.BiquadsContext, ptr %40, i32 0, i32 19
  %42 = getelementptr inbounds [3 x float], ptr %41, i64 0, i64 0
  store ptr %42, ptr %18, align 8, !tbaa !85
  call void @llvm.lifetime.start.p0(i64 8, ptr %19) #11
  %43 = load ptr, ptr %8, align 8, !tbaa !22
  %44 = getelementptr inbounds nuw %struct.BiquadsContext, ptr %43, i32 0, i32 20
  %45 = getelementptr inbounds [3 x float], ptr %44, i64 0, i64 0
  store ptr %45, ptr %19, align 8, !tbaa !85
  call void @llvm.lifetime.start.p0(i64 4, ptr %20) #11
  %46 = load ptr, ptr %19, align 8, !tbaa !85
  %47 = getelementptr inbounds float, ptr %46, i64 0
  %48 = load float, ptr %47, align 4, !tbaa !80
  store float %48, ptr %20, align 4, !tbaa !80
  call void @llvm.lifetime.start.p0(i64 4, ptr %21) #11
  %49 = load ptr, ptr %19, align 8, !tbaa !85
  %50 = getelementptr inbounds float, ptr %49, i64 1
  %51 = load float, ptr %50, align 4, !tbaa !80
  store float %51, ptr %21, align 4, !tbaa !80
  call void @llvm.lifetime.start.p0(i64 4, ptr %22) #11
  %52 = load ptr, ptr %19, align 8, !tbaa !85
  %53 = getelementptr inbounds float, ptr %52, i64 2
  %54 = load float, ptr %53, align 4, !tbaa !80
  store float %54, ptr %22, align 4, !tbaa !80
  call void @llvm.lifetime.start.p0(i64 4, ptr %23) #11
  %55 = load ptr, ptr %18, align 8, !tbaa !85
  %56 = getelementptr inbounds float, ptr %55, i64 0
  %57 = load float, ptr %56, align 4, !tbaa !80
  store float %57, ptr %23, align 4, !tbaa !80
  call void @llvm.lifetime.start.p0(i64 4, ptr %24) #11
  %58 = load ptr, ptr %18, align 8, !tbaa !85
  %59 = getelementptr inbounds float, ptr %58, i64 1
  %60 = load float, ptr %59, align 4, !tbaa !80
  store float %60, ptr %24, align 4, !tbaa !80
  call void @llvm.lifetime.start.p0(i64 4, ptr %25) #11
  %61 = load ptr, ptr %18, align 8, !tbaa !85
  %62 = getelementptr inbounds float, ptr %61, i64 2
  %63 = load float, ptr %62, align 4, !tbaa !80
  store float %63, ptr %25, align 4, !tbaa !80
  call void @llvm.lifetime.start.p0(i64 4, ptr %26) #11
  %64 = load ptr, ptr %17, align 8, !tbaa !85
  %65 = getelementptr inbounds float, ptr %64, i64 0
  %66 = load float, ptr %65, align 4, !tbaa !80
  store float %66, ptr %26, align 4, !tbaa !80
  call void @llvm.lifetime.start.p0(i64 4, ptr %27) #11
  %67 = load ptr, ptr %17, align 8, !tbaa !85
  %68 = getelementptr inbounds float, ptr %67, i64 1
  %69 = load float, ptr %68, align 4, !tbaa !80
  store float %69, ptr %27, align 4, !tbaa !80
  call void @llvm.lifetime.start.p0(i64 4, ptr %28) #11
  %70 = load ptr, ptr %8, align 8, !tbaa !22
  %71 = getelementptr inbounds nuw %struct.BiquadsContext, ptr %70, i32 0, i32 12
  %72 = load double, ptr %71, align 8, !tbaa !87
  %73 = fptrunc nsz double %72 to float
  store float %73, ptr %28, align 4, !tbaa !80
  call void @llvm.lifetime.start.p0(i64 4, ptr %29) #11
  %74 = load float, ptr %28, align 4, !tbaa !80
  %75 = fpext nsz float %74 to double
  %76 = fsub nsz double 1.000000e+00, %75
  %77 = fptrunc nsz double %76 to float
  store float %77, ptr %29, align 4, !tbaa !80
  call void @llvm.lifetime.start.p0(i64 4, ptr %30) #11
  call void @llvm.lifetime.start.p0(i64 4, ptr %31) #11
  store i32 0, ptr %31, align 4, !tbaa !31
  br label %78

78:                                               ; preds = %144, %7
  %79 = load i32, ptr %31, align 4, !tbaa !31
  %80 = load i32, ptr %11, align 4, !tbaa !31
  %81 = icmp slt i32 %79, %80
  br i1 %81, label %83, label %82

82:                                               ; preds = %78
  call void @llvm.lifetime.end.p0(i64 4, ptr %31) #11
  br label %147

83:                                               ; preds = %78
  call void @llvm.lifetime.start.p0(i64 4, ptr %32) #11
  %84 = load ptr, ptr %15, align 8, !tbaa !85
  %85 = load i32, ptr %31, align 4, !tbaa !31
  %86 = sext i32 %85 to i64
  %87 = getelementptr inbounds float, ptr %84, i64 %86
  %88 = load float, ptr %87, align 4, !tbaa !80
  store float %88, ptr %32, align 4, !tbaa !80
  call void @llvm.lifetime.start.p0(i64 4, ptr %33) #11
  %89 = load float, ptr %32, align 4, !tbaa !80
  store float %89, ptr %33, align 4, !tbaa !80
  call void @llvm.lifetime.start.p0(i64 4, ptr %34) #11
  %90 = load float, ptr %33, align 4, !tbaa !80
  %91 = load float, ptr %27, align 4, !tbaa !80
  %92 = fsub nsz float %90, %91
  store float %92, ptr %34, align 4, !tbaa !80
  call void @llvm.lifetime.start.p0(i64 4, ptr %35) #11
  %93 = load float, ptr %23, align 4, !tbaa !80
  %94 = load float, ptr %26, align 4, !tbaa !80
  %95 = load float, ptr %24, align 4, !tbaa !80
  %96 = load float, ptr %34, align 4, !tbaa !80
  %97 = fmul nsz float %95, %96
  %98 = call nsz float @llvm.fmuladd.f32(float %93, float %94, float %97)
  store float %98, ptr %35, align 4, !tbaa !80
  call void @llvm.lifetime.start.p0(i64 4, ptr %36) #11
  %99 = load float, ptr %27, align 4, !tbaa !80
  %100 = load float, ptr %24, align 4, !tbaa !80
  %101 = load float, ptr %26, align 4, !tbaa !80
  %102 = call nsz float @llvm.fmuladd.f32(float %100, float %101, float %99)
  %103 = load float, ptr %25, align 4, !tbaa !80
  %104 = load float, ptr %34, align 4, !tbaa !80
  %105 = call nsz float @llvm.fmuladd.f32(float %103, float %104, float %102)
  store float %105, ptr %36, align 4, !tbaa !80
  %106 = load float, ptr %35, align 4, !tbaa !80
  %107 = load float, ptr %26, align 4, !tbaa !80
  %108 = fneg nsz float %107
  %109 = call nsz float @llvm.fmuladd.f32(float 2.000000e+00, float %106, float %108)
  store float %109, ptr %26, align 4, !tbaa !80
  %110 = load float, ptr %36, align 4, !tbaa !80
  %111 = load float, ptr %27, align 4, !tbaa !80
  %112 = fneg nsz float %111
  %113 = call nsz float @llvm.fmuladd.f32(float 2.000000e+00, float %110, float %112)
  store float %113, ptr %27, align 4, !tbaa !80
  %114 = load float, ptr %20, align 4, !tbaa !80
  %115 = load float, ptr %33, align 4, !tbaa !80
  %116 = load float, ptr %21, align 4, !tbaa !80
  %117 = load float, ptr %35, align 4, !tbaa !80
  %118 = fmul nsz float %116, %117
  %119 = call nsz float @llvm.fmuladd.f32(float %114, float %115, float %118)
  %120 = load float, ptr %22, align 4, !tbaa !80
  %121 = load float, ptr %36, align 4, !tbaa !80
  %122 = call nsz float @llvm.fmuladd.f32(float %120, float %121, float %119)
  store float %122, ptr %30, align 4, !tbaa !80
  %123 = load float, ptr %30, align 4, !tbaa !80
  %124 = load float, ptr %28, align 4, !tbaa !80
  %125 = load float, ptr %32, align 4, !tbaa !80
  %126 = load float, ptr %29, align 4, !tbaa !80
  %127 = fmul nsz float %125, %126
  %128 = call nsz float @llvm.fmuladd.f32(float %123, float %124, float %127)
  store float %128, ptr %30, align 4, !tbaa !80
  %129 = load i32, ptr %14, align 4, !tbaa !31
  %130 = icmp ne i32 %129, 0
  br i1 %130, label %131, label %137

131:                                              ; preds = %83
  %132 = load float, ptr %32, align 4, !tbaa !80
  %133 = load ptr, ptr %16, align 8, !tbaa !85
  %134 = load i32, ptr %31, align 4, !tbaa !31
  %135 = sext i32 %134 to i64
  %136 = getelementptr inbounds float, ptr %133, i64 %135
  store float %132, ptr %136, align 4, !tbaa !80
  br label %143

137:                                              ; preds = %83
  %138 = load float, ptr %30, align 4, !tbaa !80
  %139 = load ptr, ptr %16, align 8, !tbaa !85
  %140 = load i32, ptr %31, align 4, !tbaa !31
  %141 = sext i32 %140 to i64
  %142 = getelementptr inbounds float, ptr %139, i64 %141
  store float %138, ptr %142, align 4, !tbaa !80
  br label %143

143:                                              ; preds = %137, %131
  call void @llvm.lifetime.end.p0(i64 4, ptr %36) #11
  call void @llvm.lifetime.end.p0(i64 4, ptr %35) #11
  call void @llvm.lifetime.end.p0(i64 4, ptr %34) #11
  call void @llvm.lifetime.end.p0(i64 4, ptr %33) #11
  call void @llvm.lifetime.end.p0(i64 4, ptr %32) #11
  br label %144

144:                                              ; preds = %143
  %145 = load i32, ptr %31, align 4, !tbaa !31
  %146 = add nsw i32 %145, 1
  store i32 %146, ptr %31, align 4, !tbaa !31
  br label %78, !llvm.loop !117

147:                                              ; preds = %82
  %148 = load float, ptr %26, align 4, !tbaa !80
  %149 = load ptr, ptr %17, align 8, !tbaa !85
  %150 = getelementptr inbounds float, ptr %149, i64 0
  store float %148, ptr %150, align 4, !tbaa !80
  %151 = load float, ptr %27, align 4, !tbaa !80
  %152 = load ptr, ptr %17, align 8, !tbaa !85
  %153 = getelementptr inbounds float, ptr %152, i64 1
  store float %151, ptr %153, align 4, !tbaa !80
  call void @llvm.lifetime.end.p0(i64 4, ptr %30) #11
  call void @llvm.lifetime.end.p0(i64 4, ptr %29) #11
  call void @llvm.lifetime.end.p0(i64 4, ptr %28) #11
  call void @llvm.lifetime.end.p0(i64 4, ptr %27) #11
  call void @llvm.lifetime.end.p0(i64 4, ptr %26) #11
  call void @llvm.lifetime.end.p0(i64 4, ptr %25) #11
  call void @llvm.lifetime.end.p0(i64 4, ptr %24) #11
  call void @llvm.lifetime.end.p0(i64 4, ptr %23) #11
  call void @llvm.lifetime.end.p0(i64 4, ptr %22) #11
  call void @llvm.lifetime.end.p0(i64 4, ptr %21) #11
  call void @llvm.lifetime.end.p0(i64 4, ptr %20) #11
  call void @llvm.lifetime.end.p0(i64 8, ptr %19) #11
  call void @llvm.lifetime.end.p0(i64 8, ptr %18) #11
  call void @llvm.lifetime.end.p0(i64 8, ptr %17) #11
  call void @llvm.lifetime.end.p0(i64 8, ptr %16) #11
  call void @llvm.lifetime.end.p0(i64 8, ptr %15) #11
  ret void
}