; Function Attrs: nofree norecurse nosync nounwind memory(argmem: readwrite) uwtable
define internal void @biquad_zdf_flt(ptr noundef readonly captures(none) %0, ptr noundef readonly captures(none) %1, ptr noundef writeonly captures(none) %2, i32 noundef %3, ptr noundef captures(none) %4, ptr readnone captures(none) %5, i32 noundef %6) #7 {
  %8 = getelementptr inbounds nuw i8, ptr %0, i64 160
  %9 = getelementptr inbounds nuw i8, ptr %0, i64 172
  %10 = load float, ptr %9, align 4, !tbaa !73
  %11 = getelementptr inbounds nuw i8, ptr %0, i64 176
  %12 = load float, ptr %11, align 4, !tbaa !73
  %13 = getelementptr inbounds nuw i8, ptr %0, i64 180
  %14 = load float, ptr %13, align 4, !tbaa !73
  %15 = load float, ptr %8, align 4, !tbaa !73
  %16 = getelementptr inbounds nuw i8, ptr %0, i64 164
  %17 = load float, ptr %16, align 4, !tbaa !73
  %18 = getelementptr inbounds nuw i8, ptr %0, i64 168
  %19 = load float, ptr %18, align 4, !tbaa !73
  %20 = load float, ptr %4, align 4, !tbaa !73
  %21 = getelementptr inbounds nuw i8, ptr %4, i64 4
  %22 = load float, ptr %21, align 4, !tbaa !73
  %23 = getelementptr inbounds nuw i8, ptr %0, i64 64
  %24 = load double, ptr %23, align 8, !tbaa !75
  %25 = fptrunc nsz double %24 to float
  %26 = fsub nsz float 1.000000e+00, %25
  %27 = icmp sgt i32 %3, 0
  br i1 %27, label %.lr.ph, label %._crit_edge

.lr.ph:                                           ; preds = %7
  %.not = icmp eq i32 %6, 0
  %wide.trip.count71 = zext nneg i32 %3 to i64
  br i1 %.not, label %.lr.ph.split.us, label %.lr.ph.split

.lr.ph.split.us:                                  ; preds = %.lr.ph, %.lr.ph.split.us
  %indvars.iv68 = phi i64 [ %indvars.iv.next69, %.lr.ph.split.us ], [ 0, %.lr.ph ]
  %.060.us = phi float [ %36, %.lr.ph.split.us ], [ %20, %.lr.ph ]
  %.05659.us = phi float [ %38, %.lr.ph.split.us ], [ %22, %.lr.ph ]
  %28 = getelementptr inbounds nuw float, ptr %1, i64 %indvars.iv68
  %29 = load float, ptr %28, align 4, !tbaa !73
  %30 = fsub nsz float %29, %.05659.us
  %31 = fmul nsz float %17, %30
  %32 = tail call nsz float @llvm.fmuladd.f32(float %15, float %.060.us, float %31)
  %33 = tail call nsz float @llvm.fmuladd.f32(float %17, float %.060.us, float %.05659.us)
  %34 = tail call nsz float @llvm.fmuladd.f32(float %19, float %30, float %33)
  %35 = fneg nsz float %.060.us
  %36 = tail call nsz float @llvm.fmuladd.f32(float %32, float 2.000000e+00, float %35)
  %37 = fneg nsz float %.05659.us
  %38 = tail call nsz float @llvm.fmuladd.f32(float %34, float 2.000000e+00, float %37)
  %39 = fmul nsz float %12, %32
  %40 = tail call nsz float @llvm.fmuladd.f32(float %10, float %29, float %39)
  %41 = tail call nsz float @llvm.fmuladd.f32(float %14, float %34, float %40)
  %42 = fmul nsz float %26, %29
  %43 = tail call nsz float @llvm.fmuladd.f32(float %41, float %25, float %42)
  %44 = getelementptr inbounds nuw float, ptr %2, i64 %indvars.iv68
  store float %43, ptr %44, align 4, !tbaa !73
  %indvars.iv.next69 = add nuw nsw i64 %indvars.iv68, 1
  %exitcond72.not = icmp eq i64 %indvars.iv.next69, %wide.trip.count71
  br i1 %exitcond72.not, label %._crit_edge, label %.lr.ph.split.us, !llvm.loop !104

._crit_edge:                                      ; preds = %.lr.ph.split, %.lr.ph.split.us, %7
  %.056.lcssa = phi float [ %22, %7 ], [ %38, %.lr.ph.split.us ], [ %55, %.lr.ph.split ]
  %.0.lcssa = phi float [ %20, %7 ], [ %36, %.lr.ph.split.us ], [ %53, %.lr.ph.split ]
  store float %.0.lcssa, ptr %4, align 4, !tbaa !73
  store float %.056.lcssa, ptr %21, align 4, !tbaa !73
  ret void

.lr.ph.split:                                     ; preds = %.lr.ph, %.lr.ph.split
  %indvars.iv = phi i64 [ %indvars.iv.next, %.lr.ph.split ], [ 0, %.lr.ph ]
  %.060 = phi float [ %53, %.lr.ph.split ], [ %20, %.lr.ph ]
  %.05659 = phi float [ %55, %.lr.ph.split ], [ %22, %.lr.ph ]
  %45 = getelementptr inbounds nuw float, ptr %1, i64 %indvars.iv
  %46 = load float, ptr %45, align 4, !tbaa !73
  %47 = fsub nsz float %46, %.05659
  %48 = fmul nsz float %17, %47
  %49 = tail call nsz float @llvm.fmuladd.f32(float %15, float %.060, float %48)
  %50 = tail call nsz float @llvm.fmuladd.f32(float %17, float %.060, float %.05659)
  %51 = tail call nsz float @llvm.fmuladd.f32(float %19, float %47, float %50)
  %52 = fneg nsz float %.060
  %53 = tail call nsz float @llvm.fmuladd.f32(float %49, float 2.000000e+00, float %52)
  %54 = fneg nsz float %.05659
  %55 = tail call nsz float @llvm.fmuladd.f32(float %51, float 2.000000e+00, float %54)
  %56 = getelementptr inbounds nuw float, ptr %2, i64 %indvars.iv
  store float %46, ptr %56, align 4, !tbaa !73
  %indvars.iv.next = add nuw nsw i64 %indvars.iv, 1
  %exitcond.not = icmp eq i64 %indvars.iv.next, %wide.trip.count71
  br i1 %exitcond.not, label %._crit_edge, label %.lr.ph.split, !llvm.loop !104
}